target datalayout = "e-m:e-p270:32:32-p271:32:32-p272:64:64-i64:64-i128:128-f80:128-n8:16:32:64-S128"
target triple = "x86_64-pc-linux-gnu"

@_ZN4leanL4zeroE = internal constant i32 0, align 4

; Function Attrs: mustprogress nounwind uwtable
define hidden void @_ZN4lean7mpn_addEPKjmS1_mPjmPm(ptr noundef %0, i64 noundef %1, ptr noundef %2, i64 noundef %3, ptr noundef %4, i64 noundef %5, ptr noundef %6) #0 {
  %8 = alloca ptr, align 8
  %9 = alloca i64, align 8
  %10 = alloca ptr, align 8
  %11 = alloca i64, align 8
  %12 = alloca ptr, align 8
  %13 = alloca i64, align 8
  %14 = alloca ptr, align 8
  %15 = alloca i64, align 8
  %16 = alloca i32, align 4
  %17 = alloca i32, align 4
  %18 = alloca i8, align 1
  %19 = alloca i8, align 1
  %20 = alloca i64, align 8
  %21 = alloca ptr, align 8
  %22 = alloca ptr, align 8
  %23 = alloca ptr, align 8
  store ptr %0, ptr %8, align 8, !tbaa !3
  store i64 %1, ptr %9, align 8, !tbaa !8
  store ptr %2, ptr %10, align 8, !tbaa !3
  store i64 %3, ptr %11, align 8, !tbaa !8
  store ptr %4, ptr %12, align 8, !tbaa !3
  store i64 %5, ptr %13, align 8, !tbaa !8
  store ptr %6, ptr %14, align 8, !tbaa !14
  call void @llvm.lifetime.start.p0(i64 8, ptr %15) #12
  %24 = load i64, ptr %9, align 8, !tbaa !8
  %25 = load i64, ptr %11, align 8, !tbaa !8
  %26 = icmp ugt i64 %24, %25
  br i1 %26, label %27, label %29

27:                                               ; preds = %7
  %28 = load i64, ptr %9, align 8, !tbaa !8
  br label %31

29:                                               ; preds = %7
  %30 = load i64, ptr %11, align 8, !tbaa !8
  br label %31

31:                                               ; preds = %29, %27
  %32 = phi i64 [ %28, %27 ], [ %30, %29 ]
  store i64 %32, ptr %15, align 8, !tbaa !8
  call void @llvm.lifetime.start.p0(i64 4, ptr %16) #12
  store i32 0, ptr %16, align 4, !tbaa !10
  call void @llvm.lifetime.start.p0(i64 4, ptr %17) #12
  call void @llvm.lifetime.start.p0(i64 1, ptr %18) #12
  call void @llvm.lifetime.start.p0(i64 1, ptr %19) #12
  call void @llvm.lifetime.start.p0(i64 8, ptr %20) #12
  store i64 0, ptr %20, align 8, !tbaa !8
  br label %33

33:                                               ; preds = %89, %31
  %34 = load i64, ptr %20, align 8, !tbaa !8
  %35 = load i64, ptr %15, align 8, !tbaa !8
  %36 = icmp ult i64 %34, %35
  br i1 %36, label %38, label %37

37:                                               ; preds = %33
  call void @llvm.lifetime.end.p0(i64 8, ptr %20) #12
  br label %92

38:                                               ; preds = %33
  call void @llvm.lifetime.start.p0(i64 8, ptr %21) #12
  %39 = load i64, ptr %20, align 8, !tbaa !8
  %40 = load i64, ptr %9, align 8, !tbaa !8
  %41 = icmp ult i64 %39, %40
  br i1 %41, label %42, label %46

42:                                               ; preds = %38
  %43 = load ptr, ptr %8, align 8, !tbaa !3
  %44 = load i64, ptr %20, align 8, !tbaa !8
  %45 = getelementptr inbounds nuw i32, ptr %43, i64 %44
  br label %47

46:                                               ; preds = %38
  br label %47

47:                                               ; preds = %46, %42
  %48 = phi ptr [ %45, %42 ], [ @_ZN4leanL4zeroE, %46 ]
  store ptr %48, ptr %21, align 8, !tbaa !3
  call void @llvm.lifetime.start.p0(i64 8, ptr %22) #12
  %49 = load i64, ptr %20, align 8, !tbaa !8
  %50 = load i64, ptr %11, align 8, !tbaa !8
  %51 = icmp ult i64 %49, %50
  br i1 %51, label %52, label %56

52:                                               ; preds = %47
  %53 = load ptr, ptr %10, align 8, !tbaa !3
  %54 = load i64, ptr %20, align 8, !tbaa !8
  %55 = getelementptr inbounds nuw i32, ptr %53, i64 %54
  br label %57

56:                                               ; preds = %47
  br label %57

57:                                               ; preds = %56, %52
  %58 = phi ptr [ %55, %52 ], [ @_ZN4leanL4zeroE, %56 ]
  store ptr %58, ptr %22, align 8, !tbaa !3
  %59 = load ptr, ptr %21, align 8, !tbaa !3
  %60 = load i32, ptr %59, align 4, !tbaa !10
  %61 = load ptr, ptr %22, align 8, !tbaa !3
  %62 = load i32, ptr %61, align 4, !tbaa !10
  %63 = add i32 %60, %62
  store i32 %63, ptr %17, align 4, !tbaa !10
  %64 = load i32, ptr %17, align 4, !tbaa !10
  %65 = load ptr, ptr %21, align 8, !tbaa !3
  %66 = load i32, ptr %65, align 4, !tbaa !10
  %67 = icmp ult i32 %64, %66
  %68 = zext i1 %67 to i8
  store i8 %68, ptr %18, align 1, !tbaa !16
  %69 = load i32, ptr %17, align 4, !tbaa !10
  %70 = load i32, ptr %16, align 4, !tbaa !10
  %71 = add i32 %69, %70
  %72 = load ptr, ptr %12, align 8, !tbaa !3
  %73 = load i64, ptr %20, align 8, !tbaa !8
  %74 = getelementptr inbounds nuw i32, ptr %72, i64 %73
  store i32 %71, ptr %74, align 4, !tbaa !10
  %75 = load ptr, ptr %12, align 8, !tbaa !3
  %76 = load i64, ptr %20, align 8, !tbaa !8
  %77 = getelementptr inbounds nuw i32, ptr %75, i64 %76
  %78 = load i32, ptr %77, align 4, !tbaa !10
  %79 = load i32, ptr %17, align 4, !tbaa !10
  %80 = icmp ult i32 %78, %79
  %81 = zext i1 %80 to i8
  store i8 %81, ptr %19, align 1, !tbaa !16
  %82 = load i8, ptr %18, align 1, !tbaa !16, !range !18, !noundef !19
  %83 = trunc i8 %82 to i1
  %84 = zext i1 %83 to i32
  %85 = load i8, ptr %19, align 1, !tbaa !16, !range !18, !noundef !19
  %86 = trunc i8 %85 to i1
  %87 = zext i1 %86 to i32
  %88 = or i32 %84, %87
  store i32 %88, ptr %16, align 4, !tbaa !10
  call void @llvm.lifetime.end.p0(i64 8, ptr %22) #12
  call void @llvm.lifetime.end.p0(i64 8, ptr %21) #12
  br label %89

89:                                               ; preds = %57
  %90 = load i64, ptr %20, align 8, !tbaa !8
  %91 = add i64 %90, 1
  store i64 %91, ptr %20, align 8, !tbaa !8
  br label %33, !llvm.loop !20

92:                                               ; preds = %37
  %93 = load i32, ptr %16, align 4, !tbaa !10
  %94 = load ptr, ptr %12, align 8, !tbaa !3
  %95 = load i64, ptr %15, align 8, !tbaa !8
  %96 = getelementptr inbounds nuw i32, ptr %94, i64 %95
  store i32 %93, ptr %96, align 4, !tbaa !10
  call void @llvm.lifetime.start.p0(i64 8, ptr %23) #12
  %97 = load ptr, ptr %14, align 8, !tbaa !14
  store ptr %97, ptr %23, align 8, !tbaa !14
  %98 = load i64, ptr %15, align 8, !tbaa !8
  %99 = add i64 %98, 1
  %100 = load ptr, ptr %23, align 8, !tbaa !14
  store i64 %99, ptr %100, align 8, !tbaa !8
  br label %101

101:                                              ; preds = %115, %92
  %102 = load ptr, ptr %23, align 8, !tbaa !14
  %103 = load i64, ptr %102, align 8, !tbaa !8
  %104 = icmp ugt i64 %103, 1
  br i1 %104, label %105, label %113

105:                                              ; preds = %101
  %106 = load ptr, ptr %12, align 8, !tbaa !3
  %107 = load ptr, ptr %23, align 8, !tbaa !14
  %108 = load i64, ptr %107, align 8, !tbaa !8
  %109 = sub i64 %108, 1
  %110 = getelementptr inbounds nuw i32, ptr %106, i64 %109
  %111 = load i32, ptr %110, align 4, !tbaa !10
  %112 = icmp eq i32 %111, 0
  br label %113

113:                                              ; preds = %105, %101
  %114 = phi i1 [ false, %101 ], [ %112, %105 ]
  br i1 %114, label %115, label %119

115:                                              ; preds = %113
  %116 = load ptr, ptr %23, align 8, !tbaa !14
  %117 = load i64, ptr %116, align 8, !tbaa !8
  %118 = add i64 %117, -1
  store i64 %118, ptr %116, align 8, !tbaa !8
  br label %101, !llvm.loop !21

119:                                              ; preds = %113
  call void @llvm.lifetime.end.p0(i64 8, ptr %23) #12
  call void @llvm.lifetime.end.p0(i64 1, ptr %19) #12
  call void @llvm.lifetime.end.p0(i64 1, ptr %18) #12
  call void @llvm.lifetime.end.p0(i64 4, ptr %17) #12
  call void @llvm.lifetime.end.p0(i64 4, ptr %16) #12
  call void @llvm.lifetime.end.p0(i64 8, ptr %15) #12
  ret void
}