; Function Attrs: mustprogress nofree norecurse nosync nounwind memory(read, argmem: readwrite, inaccessiblemem: none) uwtable
define hidden void @_ZN4lean7mpn_addEPKjmS1_mPjmPm(ptr noundef readonly captures(none) %0, i64 noundef %1, ptr noundef readonly captures(none) %2, i64 noundef %3, ptr noundef captures(none) %4, i64 noundef %5, ptr noundef writeonly captures(none) %6) local_unnamed_addr #2 {
  %8 = tail call i64 @llvm.umax.i64(i64 %1, i64 %3)
  %.not = icmp eq i64 %8, 0
  br i1 %.not, label %._crit_edge.thread, label %.lr.ph

._crit_edge.thread:                               ; preds = %7
  %9 = getelementptr inbounds nuw i32, ptr %4, i64 %8
  store i32 0, ptr %9, align 4, !tbaa !3
  br label %.critedge

._crit_edge:                                      ; preds = %.lr.ph
  %10 = getelementptr inbounds nuw i32, ptr %4, i64 %8
  store i32 %27, ptr %10, align 4, !tbaa !3
  %11 = add i64 %8, 1
  %invariant.gep = getelementptr i8, ptr %4, i64 -4
  %12 = icmp ugt i64 %11, 1
  br i1 %12, label %.lr.ph44, label %.critedge

.lr.ph:                                           ; preds = %7, %.lr.ph
  %.041 = phi i32 [ %27, %.lr.ph ], [ 0, %7 ]
  %.03740 = phi i64 [ %28, %.lr.ph ], [ 0, %7 ]
  %13 = icmp ult i64 %.03740, %1
  %14 = getelementptr inbounds nuw i32, ptr %0, i64 %.03740
  %15 = select i1 %13, ptr %14, ptr @_ZN4leanL4zeroE
  %16 = icmp ult i64 %.03740, %3
  %17 = getelementptr inbounds nuw i32, ptr %2, i64 %.03740
  %18 = select i1 %16, ptr %17, ptr @_ZN4leanL4zeroE
  %19 = load i32, ptr %15, align 4, !tbaa !3
  %20 = load i32, ptr %18, align 4, !tbaa !3
  %21 = add i32 %20, %19
  %22 = icmp ult i32 %21, %19
  %23 = add i32 %21, %.041
  %24 = getelementptr inbounds nuw i32, ptr %4, i64 %.03740
  store i32 %23, ptr %24, align 4, !tbaa !3
  %25 = icmp ult i32 %23, %21
  %26 = or i1 %22, %25
  %27 = zext i1 %26 to i32
  %28 = add nuw i64 %.03740, 1
  %exitcond.not = icmp eq i64 %28, %8
  br i1 %exitcond.not, label %._crit_edge, label %.lr.ph, !llvm.loop !9

.lr.ph44:                                         ; preds = %._crit_edge, %31
  %storemerge42 = phi i64 [ %32, %31 ], [ %11, %._crit_edge ]
  %gep = getelementptr i32, ptr %invariant.gep, i64 %storemerge42
  %29 = load i32, ptr %gep, align 4, !tbaa !3
  %30 = icmp eq i32 %29, 0
  br i1 %30, label %31, label %.critedge

31:                                               ; preds = %.lr.ph44
  %32 = add i64 %storemerge42, -1
  %33 = icmp ugt i64 %32, 1
  br i1 %33, label %.lr.ph44, label %.critedge, !llvm.loop !10

.critedge:                                        ; preds = %.lr.ph44, %31, %._crit_edge.thread, %._crit_edge
  %storemerge.lcssa = phi i64 [ 0, %._crit_edge ], [ 1, %._crit_edge.thread ], [ 1, %31 ], [ %storemerge42, %.lr.ph44 ]
  store i64 %storemerge.lcssa, ptr %6, align 8, !tbaa !11
  ret void
}